target datalayout = "e-m:e-p270:32:32-p271:32:32-p272:64:64-i64:64-i128:128-f80:128-n8:16:32:64-S128"
target triple = "x86_64-pc-linux-gnu"

%"struct.c4::yml::Callbacks" = type { ptr, ptr, ptr, ptr }
%"struct.c4::basic_substring.0" = type { ptr, i64 }
%"struct.c4::basic_substring" = type { ptr, i64 }
%"struct.c4::yml::Location" = type { %"struct.c4::yml::LineCol", %"struct.c4::basic_substring.0" }
%"struct.c4::yml::LineCol" = type { i64, i64, i64 }
%"class.c4::yml::Tree" = type { ptr, i64, i64, i64, i64, %"struct.c4::basic_substring", i64, %"struct.c4::yml::Callbacks", [4 x %"struct.c4::yml::TagDirective"] }
%"struct.c4::yml::TagDirective" = type { %"struct.c4::basic_substring.0", %"struct.c4::basic_substring.0", i64 }
%"class.c4::yml::ConstNodeRef" = type { ptr, i64 }
%"struct.c4::yml::NodeData" = type { %"struct.c4::yml::NodeType", %"struct.c4::yml::NodeScalar", %"struct.c4::yml::NodeScalar", i64, i64, i64, i64, i64 }
%"struct.c4::yml::NodeType" = type { i64 }
%"struct.c4::yml::NodeScalar" = type { %"struct.c4::basic_substring.0", %"struct.c4::basic_substring.0", %"struct.c4::basic_substring.0" }

@.str = private unnamed_addr constant [128 x i8] c"generated/home/dtcxzyw/WorkSpace/Projects/compilers/llvm-opt-benchmark/bench/jsonnet/jsonnet/third_party/rapidyaml/ryml_all.hpp\00", align 1
@__const._ZNK2c43yml4Tree4crefEm.msg = private unnamed_addr constant [53 x i8] c"check failed: (id != NONE && id >= 0 && id < m_size)\00", align 16
@__const._ZNK2c43yml4Tree5childEmm.msg = private unnamed_addr constant [29 x i8] c"check failed: (node != NONE)\00", align 16

; Function Attrs: mustprogress nounwind uwtable
define linkonce_odr void @_ZN2c415basic_substringIKcEC2EPS1_m(ptr noundef nonnull align 8 dereferenceable(16) %0, ptr noundef %1, i64 noundef %2) unnamed_addr #0 comdat align 2 {
  %4 = alloca ptr, align 8
  %5 = alloca ptr, align 8
  %6 = alloca i64, align 8
  store ptr %0, ptr %4, align 8, !tbaa !45
  store ptr %1, ptr %5, align 8, !tbaa !20
  store i64 %2, ptr %6, align 8, !tbaa !15
  %7 = load ptr, ptr %4, align 8
  %8 = getelementptr inbounds nuw %"struct.c4::basic_substring.0", ptr %7, i32 0, i32 0
  %9 = load ptr, ptr %5, align 8, !tbaa !20
  store ptr %9, ptr %8, align 8, !tbaa !37
  %10 = getelementptr inbounds nuw %"struct.c4::basic_substring.0", ptr %7, i32 0, i32 1
  %11 = load i64, ptr %6, align 8, !tbaa !15
  store i64 %11, ptr %10, align 8, !tbaa !39
  ret void
}

; Function Attrs: inlinehint mustprogress nounwind uwtable
define linkonce_odr noundef ptr @_ZNK2c43yml4Tree2_pEm(ptr noundef nonnull align 8 dereferenceable(256) %0, i64 noundef %1) #3 comdat align 2 {
  %3 = alloca ptr, align 8
  %4 = alloca i64, align 8
  store ptr %0, ptr %3, align 8, !tbaa !96
  store i64 %1, ptr %4, align 8, !tbaa !15
  %5 = load ptr, ptr %3, align 8
  %6 = getelementptr inbounds nuw %"class.c4::yml::Tree", ptr %5, i32 0, i32 0
  %7 = load ptr, ptr %6, align 8, !tbaa !118
  %8 = load i64, ptr %4, align 8, !tbaa !15
  %9 = getelementptr inbounds nuw %"struct.c4::yml::NodeData", ptr %7, i64 %8
  ret ptr %9
}

; Function Attrs: inlinehint mustprogress uwtable
define linkonce_odr { ptr, i64 } @_ZN2c410to_csubstrEPKc(ptr noundef %0) #19 comdat {
  %2 = alloca %"struct.c4::basic_substring.0", align 8
  %3 = alloca ptr, align 8
  store ptr %0, ptr %3, align 8, !tbaa !20
  %4 = load ptr, ptr %3, align 8, !tbaa !20
  %5 = load ptr, ptr %3, align 8, !tbaa !20
  %6 = icmp ne ptr %5, null
  br i1 %6, label %7, label %10

7:                                                ; preds = %1
  %8 = load ptr, ptr %3, align 8, !tbaa !20
  %9 = call i64 @strlen(ptr noundef %8) #26
  br label %11

10:                                               ; preds = %1
  br label %11

11:                                               ; preds = %10, %7
  %12 = phi i64 [ %9, %7 ], [ 0, %10 ]
  call void @_ZN2c415basic_substringIKcEC2EPS1_m(ptr noundef nonnull align 8 dereferenceable(16) %2, ptr noundef %4, i64 noundef %12)
  %13 = load { ptr, i64 }, ptr %2, align 8
  ret { ptr, i64 } %13
}

; Function Attrs: mustprogress nounwind uwtable
define linkonce_odr void @_ZN2c43yml7LineColC2Emmm(ptr noundef nonnull align 8 dereferenceable(24) %0, i64 noundef %1, i64 noundef %2, i64 noundef %3) unnamed_addr #0 comdat align 2 {
  %5 = alloca ptr, align 8
  %6 = alloca i64, align 8
  %7 = alloca i64, align 8
  %8 = alloca i64, align 8
  store ptr %0, ptr %5, align 8, !tbaa !355
  store i64 %1, ptr %6, align 8, !tbaa !15
  store i64 %2, ptr %7, align 8, !tbaa !15
  store i64 %3, ptr %8, align 8, !tbaa !15
  %9 = load ptr, ptr %5, align 8
  %10 = getelementptr inbounds nuw %"struct.c4::yml::LineCol", ptr %9, i32 0, i32 0
  %11 = load i64, ptr %6, align 8, !tbaa !15
  store i64 %11, ptr %10, align 8, !tbaa !80
  %12 = getelementptr inbounds nuw %"struct.c4::yml::LineCol", ptr %9, i32 0, i32 1
  %13 = load i64, ptr %7, align 8, !tbaa !15
  store i64 %13, ptr %12, align 8, !tbaa !78
  %14 = getelementptr inbounds nuw %"struct.c4::yml::LineCol", ptr %9, i32 0, i32 2
  %15 = load i64, ptr %8, align 8, !tbaa !15
  store i64 %15, ptr %14, align 8, !tbaa !79
  ret void
}

; Function Attrs: mustprogress uwtable
define linkonce_odr noundef i64 @_ZNK2c43yml4Tree12next_siblingEm(ptr noundef nonnull align 8 dereferenceable(256) %0, i64 noundef %1) #1 comdat align 2 {
  %3 = alloca ptr, align 8
  %4 = alloca i64, align 8
  store ptr %0, ptr %3, align 8, !tbaa !96
  store i64 %1, ptr %4, align 8, !tbaa !15
  %5 = load ptr, ptr %3, align 8
  %6 = load i64, ptr %4, align 8, !tbaa !15
  %7 = call noundef ptr @_ZNK2c43yml4Tree2_pEm(ptr noundef nonnull align 8 dereferenceable(256) %5, i64 noundef %6)
  %8 = getelementptr inbounds nuw %"struct.c4::yml::NodeData", ptr %7, i32 0, i32 6
  %9 = load i64, ptr %8, align 8, !tbaa !127
  ret i64 %9
}

; Function Attrs: mustprogress uwtable
define linkonce_odr noundef i64 @_ZNK2c43yml4Tree11first_childEm(ptr noundef nonnull align 8 dereferenceable(256) %0, i64 noundef %1) #1 comdat align 2 {
  %3 = alloca ptr, align 8
  %4 = alloca i64, align 8
  store ptr %0, ptr %3, align 8, !tbaa !96
  store i64 %1, ptr %4, align 8, !tbaa !15
  %5 = load ptr, ptr %3, align 8
  %6 = load i64, ptr %4, align 8, !tbaa !15
  %7 = call noundef ptr @_ZNK2c43yml4Tree2_pEm(ptr noundef nonnull align 8 dereferenceable(256) %5, i64 noundef %6)
  %8 = getelementptr inbounds nuw %"struct.c4::yml::NodeData", ptr %7, i32 0, i32 4
  %9 = load i64, ptr %8, align 8, !tbaa !146
  ret i64 %9
}

; Function Attrs: mustprogress nounwind uwtable
define linkonce_odr void @_ZN2c43yml12ConstNodeRefC2EPKNS0_4TreeEm(ptr noundef nonnull align 8 dereferenceable(16) %0, ptr noundef %1, i64 noundef %2) unnamed_addr #0 comdat align 2 {
  %4 = alloca ptr, align 8
  %5 = alloca ptr, align 8
  %6 = alloca i64, align 8
  store ptr %0, ptr %4, align 8, !tbaa !106
  store ptr %1, ptr %5, align 8, !tbaa !96
  store i64 %2, ptr %6, align 8, !tbaa !15
  %7 = load ptr, ptr %4, align 8
  %8 = getelementptr inbounds nuw %"class.c4::yml::ConstNodeRef", ptr %7, i32 0, i32 0
  %9 = load ptr, ptr %5, align 8, !tbaa !96
  store ptr %9, ptr %8, align 8, !tbaa !108
  %10 = getelementptr inbounds nuw %"class.c4::yml::ConstNodeRef", ptr %7, i32 0, i32 1
  %11 = load i64, ptr %6, align 8, !tbaa !15
  store i64 %11, ptr %10, align 8, !tbaa !110
  ret void
}

; Function Attrs: mustprogress uwtable
define linkonce_odr void @_ZN2c43yml8LocationC2EPKcmmm(ptr noundef nonnull align 8 dereferenceable(40) %0, ptr noundef %1, i64 noundef %2, i64 noundef %3, i64 noundef %4) unnamed_addr #1 comdat align 2 {
  %6 = alloca ptr, align 8
  %7 = alloca ptr, align 8
  %8 = alloca i64, align 8
  %9 = alloca i64, align 8
  %10 = alloca i64, align 8
  store ptr %0, ptr %6, align 8, !tbaa !81
  store ptr %1, ptr %7, align 8, !tbaa !20
  store i64 %2, ptr %8, align 8, !tbaa !15
  store i64 %3, ptr %9, align 8, !tbaa !15
  store i64 %4, ptr %10, align 8, !tbaa !15
  %11 = load ptr, ptr %6, align 8
  %12 = load i64, ptr %8, align 8, !tbaa !15
  %13 = load i64, ptr %9, align 8, !tbaa !15
  %14 = load i64, ptr %10, align 8, !tbaa !15
  call void @_ZN2c43yml7LineColC2Emmm(ptr noundef nonnull align 8 dereferenceable(24) %11, i64 noundef %12, i64 noundef %13, i64 noundef %14)
  %15 = getelementptr inbounds nuw %"struct.c4::yml::Location", ptr %11, i32 0, i32 1
  %16 = load ptr, ptr %7, align 8, !tbaa !20
  %17 = call { ptr, i64 } @_ZN2c410to_csubstrEPKc(ptr noundef %16)
  %18 = getelementptr inbounds nuw { ptr, i64 }, ptr %15, i32 0, i32 0
  %19 = extractvalue { ptr, i64 } %17, 0
  store ptr %19, ptr %18, align 8
  %20 = getelementptr inbounds nuw { ptr, i64 }, ptr %15, i32 0, i32 1
  %21 = extractvalue { ptr, i64 } %17, 1
  store i64 %21, ptr %20, align 8
  ret void
}

; Function Attrs: mustprogress uwtable
define noundef i64 @_ZNK2c43yml4Tree5childEmm(ptr noundef nonnull align 8 dereferenceable(256) %0, i64 noundef %1, i64 noundef %2) #1 align 2 {
  %4 = alloca i64, align 8
  %5 = alloca ptr, align 8
  %6 = alloca i64, align 8
  %7 = alloca i64, align 8
  %8 = alloca [29 x i8], align 16
  %9 = alloca %"struct.c4::yml::Location", align 8
  %10 = alloca i64, align 8
  %11 = alloca i64, align 8
  %12 = alloca i32, align 4
  store ptr %0, ptr %5, align 8, !tbaa !96
  store i64 %1, ptr %6, align 8, !tbaa !15
  store i64 %2, ptr %7, align 8, !tbaa !15
  %13 = load ptr, ptr %5, align 8
  br label %14

14:                                               ; preds = %3
  %15 = load i64, ptr %6, align 8, !tbaa !15
  %16 = icmp ne i64 %15, -1
  br i1 %16, label %25, label %17

17:                                               ; preds = %14
  call void @llvm.lifetime.start.p0(i64 29, ptr %8) #25
  call void @llvm.memcpy.p0.p0.i64(ptr align 16 %8, ptr align 16 @__const._ZNK2c43yml4Tree5childEmm.msg, i64 29, i1 false)
  %18 = getelementptr inbounds nuw %"class.c4::yml::Tree", ptr %13, i32 0, i32 7
  %19 = getelementptr inbounds nuw %"struct.c4::yml::Callbacks", ptr %18, i32 0, i32 3
  %20 = load ptr, ptr %19, align 8, !tbaa !112
  %21 = getelementptr inbounds [29 x i8], ptr %8, i64 0, i64 0
  call void @_ZN2c43yml8LocationC2EPKcmmm(ptr noundef nonnull align 8 dereferenceable(40) %9, ptr noundef @.str, i64 noundef 0, i64 noundef 26491, i64 noundef 0)
  %22 = getelementptr inbounds nuw %"class.c4::yml::Tree", ptr %13, i32 0, i32 7
  %23 = getelementptr inbounds nuw %"struct.c4::yml::Callbacks", ptr %22, i32 0, i32 0
  %24 = load ptr, ptr %23, align 8, !tbaa !113
  call void %20(ptr noundef %21, i64 noundef 29, ptr noundef byval(%"struct.c4::yml::Location") align 8 %9, ptr noundef %24)
  call void @llvm.lifetime.end.p0(i64 29, ptr %8) #25
  br label %25

25:                                               ; preds = %17, %14
  br label %26

26:                                               ; preds = %25
  call void @llvm.lifetime.start.p0(i64 8, ptr %10) #25
  store i64 0, ptr %10, align 8, !tbaa !15
  call void @llvm.lifetime.start.p0(i64 8, ptr %11) #25
  %27 = load i64, ptr %6, align 8, !tbaa !15
  %28 = call noundef i64 @_ZNK2c43yml4Tree11first_childEm(ptr noundef nonnull align 8 dereferenceable(256) %13, i64 noundef %27)
  store i64 %28, ptr %11, align 8, !tbaa !15
  br label %29

29:                                               ; preds = %41, %26
  %30 = load i64, ptr %11, align 8, !tbaa !15
  %31 = icmp ne i64 %30, -1
  br i1 %31, label %33, label %32

32:                                               ; preds = %29
  store i32 4, ptr %12, align 4
  br label %44

33:                                               ; preds = %29
  %34 = load i64, ptr %10, align 8, !tbaa !15
  %35 = add i64 %34, 1
  store i64 %35, ptr %10, align 8, !tbaa !15
  %36 = load i64, ptr %7, align 8, !tbaa !15
  %37 = icmp eq i64 %34, %36
  br i1 %37, label %38, label %40

38:                                               ; preds = %33
  %39 = load i64, ptr %11, align 8, !tbaa !15
  store i64 %39, ptr %4, align 8
  store i32 1, ptr %12, align 4
  br label %44

40:                                               ; preds = %33
  br label %41

41:                                               ; preds = %40
  %42 = load i64, ptr %11, align 8, !tbaa !15
  %43 = call noundef i64 @_ZNK2c43yml4Tree12next_siblingEm(ptr noundef nonnull align 8 dereferenceable(256) %13, i64 noundef %42)
  store i64 %43, ptr %11, align 8, !tbaa !15
  br label %29, !llvm.loop !184

44:                                               ; preds = %38, %32
  call void @llvm.lifetime.end.p0(i64 8, ptr %11) #25
  %45 = load i32, ptr %12, align 4
  switch i32 %45, label %47 [
    i32 4, label %46
  ]

46:                                               ; preds = %44
  store i64 -1, ptr %4, align 8
  store i32 1, ptr %12, align 4
  br label %47

47:                                               ; preds = %46, %44
  call void @llvm.lifetime.end.p0(i64 8, ptr %10) #25
  %48 = load i64, ptr %4, align 8
  ret i64 %48
}

; Function Attrs: mustprogress nounwind uwtable
define linkonce_odr noundef i64 @_ZNK2c43yml4Tree7root_idEv(ptr noundef nonnull align 8 dereferenceable(256) %0) #0 comdat align 2 {
  %2 = alloca ptr, align 8
  store ptr %0, ptr %2, align 8, !tbaa !96
  ret i64 0
}

; Function Attrs: mustprogress uwtable
define { ptr, i64 } @_ZNK2c43yml4Tree4crefEm(ptr noundef nonnull align 8 dereferenceable(256) %0, i64 noundef %1) #1 align 2 {
  %3 = alloca %"class.c4::yml::ConstNodeRef", align 8
  %4 = alloca ptr, align 8
  %5 = alloca i64, align 8
  %6 = alloca [53 x i8], align 16
  %7 = alloca %"struct.c4::yml::Location", align 8
  store ptr %0, ptr %4, align 8, !tbaa !96
  store i64 %1, ptr %5, align 8, !tbaa !15
  %8 = load ptr, ptr %4, align 8
  br label %9

9:                                                ; preds = %2
  %10 = load i64, ptr %5, align 8, !tbaa !15
  %11 = icmp ne i64 %10, -1
  br i1 %11, label %12, label %20

12:                                               ; preds = %9
  %13 = load i64, ptr %5, align 8, !tbaa !15
  %14 = icmp uge i64 %13, 0
  br i1 %14, label %15, label %20

15:                                               ; preds = %12
  %16 = load i64, ptr %5, align 8, !tbaa !15
  %17 = getelementptr inbounds nuw %"class.c4::yml::Tree", ptr %8, i32 0, i32 2
  %18 = load i64, ptr %17, align 8, !tbaa !111
  %19 = icmp ult i64 %16, %18
  br i1 %19, label %28, label %20

20:                                               ; preds = %15, %12, %9
  call void @llvm.lifetime.start.p0(i64 53, ptr %6) #25
  call void @llvm.memcpy.p0.p0.i64(ptr align 16 %6, ptr align 16 @__const._ZNK2c43yml4Tree4crefEm.msg, i64 53, i1 false)
  %21 = getelementptr inbounds nuw %"class.c4::yml::Tree", ptr %8, i32 0, i32 7
  %22 = getelementptr inbounds nuw %"struct.c4::yml::Callbacks", ptr %21, i32 0, i32 3
  %23 = load ptr, ptr %22, align 8, !tbaa !112
  %24 = getelementptr inbounds [53 x i8], ptr %6, i64 0, i64 0
  call void @_ZN2c43yml8LocationC2EPKcmmm(ptr noundef nonnull align 8 dereferenceable(40) %7, ptr noundef @.str, i64 noundef 0, i64 noundef 25192, i64 noundef 0)
  %25 = getelementptr inbounds nuw %"class.c4::yml::Tree", ptr %8, i32 0, i32 7
  %26 = getelementptr inbounds nuw %"struct.c4::yml::Callbacks", ptr %25, i32 0, i32 0
  %27 = load ptr, ptr %26, align 8, !tbaa !113
  call void %23(ptr noundef %24, i64 noundef 53, ptr noundef byval(%"struct.c4::yml::Location") align 8 %7, ptr noundef %27)
  call void @llvm.lifetime.end.p0(i64 53, ptr %6) #25
  br label %28

28:                                               ; preds = %20, %15
  br label %29

29:                                               ; preds = %28
  %30 = load i64, ptr %5, align 8, !tbaa !15
  call void @_ZN2c43yml12ConstNodeRefC2EPKNS0_4TreeEm(ptr noundef nonnull align 8 dereferenceable(16) %3, ptr noundef %8, i64 noundef %30)
  %31 = load { ptr, i64 }, ptr %3, align 8
  ret { ptr, i64 } %31
}

; Function Attrs: mustprogress uwtable
define linkonce_odr noundef i64 @_ZNK2c43yml4Tree3docEm(ptr noundef nonnull align 8 dereferenceable(256) %0, i64 noundef %1) #1 comdat align 2 {
  %3 = alloca ptr, align 8
  %4 = alloca i64, align 8
  %5 = alloca i64, align 8
  store ptr %0, ptr %3, align 8, !tbaa !96
  store i64 %1, ptr %4, align 8, !tbaa !15
  %6 = load ptr, ptr %3, align 8
  call void @llvm.lifetime.start.p0(i64 8, ptr %5) #25
  %7 = call noundef i64 @_ZNK2c43yml4Tree7root_idEv(ptr noundef nonnull align 8 dereferenceable(256) %6)
  store i64 %7, ptr %5, align 8, !tbaa !15
  %8 = load i64, ptr %5, align 8, !tbaa !15
  %9 = load i64, ptr %4, align 8, !tbaa !15
  %10 = call noundef i64 @_ZNK2c43yml4Tree5childEmm(ptr noundef nonnull align 8 dereferenceable(256) %6, i64 noundef %8, i64 noundef %9)
  call void @llvm.lifetime.end.p0(i64 8, ptr %5) #25
  ret i64 %10
}

; Function Attrs: mustprogress uwtable
define { ptr, i64 } @_ZNK2c43yml4Tree6docrefEm(ptr noundef nonnull align 8 dereferenceable(256) %0, i64 noundef %1) #1 align 2 {
  %3 = alloca %"class.c4::yml::ConstNodeRef", align 8
  %4 = alloca ptr, align 8
  %5 = alloca i64, align 8
  store ptr %0, ptr %4, align 8, !tbaa !96
  store i64 %1, ptr %5, align 8, !tbaa !15
  %6 = load ptr, ptr %4, align 8
  %7 = load i64, ptr %5, align 8, !tbaa !15
  %8 = call noundef i64 @_ZNK2c43yml4Tree3docEm(ptr noundef nonnull align 8 dereferenceable(256) %6, i64 noundef %7)
  %9 = call { ptr, i64 } @_ZNK2c43yml4Tree4crefEm(ptr noundef nonnull align 8 dereferenceable(256) %6, i64 noundef %8)
  %10 = getelementptr inbounds nuw { ptr, i64 }, ptr %3, i32 0, i32 0
  %11 = extractvalue { ptr, i64 } %9, 0
  store ptr %11, ptr %10, align 8
  %12 = getelementptr inbounds nuw { ptr, i64 }, ptr %3, i32 0, i32 1
  %13 = extractvalue { ptr, i64 } %9, 1
  store i64 %13, ptr %12, align 8
  %14 = load { ptr, i64 }, ptr %3, align 8
  ret { ptr, i64 } %14
}