; Function Attrs: mustprogress uwtable
define { ptr, i64 } @_ZNK2c43yml4Tree6docrefEm(ptr noundef nonnull align 8 dereferenceable(256) %0, i64 noundef %1) local_unnamed_addr #1 align 2 {
  %3 = alloca [53 x i8], align 16
  %4 = alloca %"struct.c4::yml::Location", align 8
  %5 = load ptr, ptr %0, align 8, !tbaa !116
  %6 = getelementptr inbounds nuw i8, ptr %5, i64 112
  %.0915.i.i = load i64, ptr %6, align 8, !tbaa !68
  %.not1416.i.i = icmp eq i64 %.0915.i.i, -1
  %7 = icmp eq i64 %1, 0
  %or.cond17.i.i = or i1 %7, %.not1416.i.i
  br i1 %or.cond17.i.i, label %_ZNK2c43yml4Tree3docEm.exit, label %.lr.ph.i.i

.lr.ph.i.i:                                       ; preds = %2, %.lr.ph.i.i
  %.0919.i.i = phi i64 [ %.09.i.i, %.lr.ph.i.i ], [ %.0915.i.i, %2 ]
  %.01018.i.i = phi i64 [ %8, %.lr.ph.i.i ], [ 0, %2 ]
  %8 = add nuw i64 %.01018.i.i, 1
  %9 = getelementptr inbounds nuw %"struct.c4::yml::NodeData", ptr %5, i64 %.0919.i.i, i32 6
  %.09.i.i = load i64, ptr %9, align 8, !tbaa !68
  %.not14.i.i = icmp eq i64 %.09.i.i, -1
  %10 = icmp eq i64 %8, %1
  %or.cond.i.i = select i1 %.not14.i.i, i1 true, i1 %10
  br i1 %or.cond.i.i, label %_ZNK2c43yml4Tree3docEm.exit, label %.lr.ph.i.i, !llvm.loop !120

_ZNK2c43yml4Tree3docEm.exit:                      ; preds = %.lr.ph.i.i, %2
  %.09.lcssa.i.i = phi i64 [ %.0915.i.i, %2 ], [ %.09.i.i, %.lr.ph.i.i ]
  call void @llvm.lifetime.start.p0(i64 40, ptr nonnull %4)
  %.not.i = icmp ne i64 %.09.lcssa.i.i, -1
  %11 = getelementptr inbounds nuw i8, ptr %0, i64 16
  %12 = load i64, ptr %11, align 8
  %13 = icmp ult i64 %.09.lcssa.i.i, %12
  %or.cond.i = select i1 %.not.i, i1 %13, i1 false
  br i1 %or.cond.i, label %_ZNK2c43yml4Tree4crefEm.exit, label %.split.i

.split.i:                                         ; preds = %_ZNK2c43yml4Tree3docEm.exit
  call void @llvm.lifetime.start.p0(i64 53, ptr nonnull %3) #39
  call void @llvm.memcpy.p0.p0.i64(ptr noundef nonnull align 16 dereferenceable(53) %3, ptr noundef nonnull align 16 dereferenceable(53) @__const._ZNK2c43yml4Tree4crefEm.msg, i64 53, i1 false)
  %14 = getelementptr inbounds nuw i8, ptr %0, i64 64
  %15 = getelementptr inbounds nuw i8, ptr %0, i64 88
  %16 = load ptr, ptr %15, align 8, !tbaa !102
  store i64 0, ptr %4, align 8, !tbaa !103
  %17 = getelementptr inbounds nuw i8, ptr %4, i64 8
  store i64 25192, ptr %17, align 8, !tbaa !104
  %18 = getelementptr inbounds nuw i8, ptr %4, i64 16
  store i64 0, ptr %18, align 8, !tbaa !58
  %19 = getelementptr inbounds nuw i8, ptr %4, i64 24
  store ptr @.str, ptr %19, align 8
  %20 = getelementptr inbounds nuw i8, ptr %4, i64 32
  store i64 127, ptr %20, align 8
  %21 = load ptr, ptr %14, align 8, !tbaa !105
  call void %16(ptr noundef nonnull %3, i64 noundef 53, ptr noundef nonnull byval(%"struct.c4::yml::Location") align 8 %4, ptr noundef %21)
  call void @llvm.lifetime.end.p0(i64 53, ptr nonnull %3) #39
  br label %_ZNK2c43yml4Tree4crefEm.exit

_ZNK2c43yml4Tree4crefEm.exit:                     ; preds = %_ZNK2c43yml4Tree3docEm.exit, %.split.i
  %.fca.0.insert.i = insertvalue { ptr, i64 } poison, ptr %0, 0
  %.fca.1.insert.i = insertvalue { ptr, i64 } %.fca.0.insert.i, i64 %.09.lcssa.i.i, 1
  call void @llvm.lifetime.end.p0(i64 40, ptr nonnull %4)
  ret { ptr, i64 } %.fca.1.insert.i
}